#include <math.h>
#include <stdio.h>
#include <stdlib.h>
#include <string.h>

int main(){
	int i,n,l;
	char a[33];
	scanf("%d",&n);
	for(i=0;i<n;i++){
		scanf("%s",a);
		if(a[strlen(a)-1]=='g'){
			a[strlen(a)-3]='\0';
			printf("%s\n",a);
		}
		if(a[strlen(a)-1]=='r'||a[strlen(a)-1]=='y'){
			a[strlen(a)-2]='\0';
			printf("%s\n",a);
		}
	}
	return 0;
}
